target datalayout = "e-m:e-p270:32:32-p271:32:32-p272:64:64-i64:64-i128:128-f80:128-n8:16:32:64-S128"
target triple = "x86_64-pc-linux-gnu"

@H5L_init_g = external global i8, align 1
@H5_libterm_g = external global i8, align 1
@.str = private unnamed_addr constant [105 x i8] c"generated/home/dtcxzyw/WorkSpace/Projects/compilers/llvm-opt-benchmark/bench/hdf5/hdf5/src/H5Lexternal.c\00", align 1
@H5E_LINK_g = external global i64, align 8
@H5E_CANTDECODE_g = external global i64, align 8
@.str.4 = private unnamed_addr constant [37 x i8] c"bad version number for external link\00", align 1
@.str.5 = private unnamed_addr constant [28 x i8] c"bad flags for external link\00", align 1
@__func__.H5L__extern_query = private unnamed_addr constant [18 x i8] c"H5L__extern_query\00", align 1

; Function Attrs: nounwind uwtable
define internal i64 @H5L__extern_query(ptr noundef %0, ptr noundef %1, i64 noundef %2, ptr noundef %3, i64 noundef %4) #0 {
  %6 = alloca ptr, align 8
  %7 = alloca ptr, align 8
  %8 = alloca i64, align 8
  %9 = alloca ptr, align 8
  %10 = alloca i64, align 8
  %11 = alloca ptr, align 8
  %12 = alloca i64, align 8
  %13 = alloca i8, align 1
  store ptr %0, ptr %6, align 8, !tbaa !13
  store ptr %1, ptr %7, align 8, !tbaa !16
  store i64 %2, ptr %8, align 8, !tbaa !11
  store ptr %3, ptr %9, align 8, !tbaa !16
  store i64 %4, ptr %10, align 8, !tbaa !11
  call void @llvm.lifetime.start.p0(i64 8, ptr %11) #7
  %14 = load ptr, ptr %7, align 8, !tbaa !16
  store ptr %14, ptr %11, align 8, !tbaa !13
  call void @llvm.lifetime.start.p0(i64 8, ptr %12) #7
  store i64 0, ptr %12, align 8, !tbaa !11
  call void @llvm.lifetime.start.p0(i64 1, ptr %13) #7
  store i8 0, ptr %13, align 1, !tbaa !7
  %15 = load i8, ptr @H5L_init_g, align 1, !tbaa !7, !range !9, !noundef !10
  %16 = trunc i8 %15 to i1
  br i1 %16, label %21, label %17

17:                                               ; preds = %5
  %18 = load i8, ptr @H5_libterm_g, align 1, !tbaa !7, !range !9, !noundef !10
  %19 = trunc i8 %18 to i1
  %20 = xor i1 %19, true
  br label %21

21:                                               ; preds = %17, %5
  %22 = phi i1 [ true, %5 ], [ %20, %17 ]
  %23 = xor i1 %22, true
  %24 = xor i1 %23, true
  %25 = zext i1 %24 to i32
  %26 = sext i32 %25 to i64
  %27 = call i64 @llvm.expect.i64(i64 %26, i64 1)
  %28 = icmp ne i64 %27, 0
  br i1 %28, label %29, label %97

29:                                               ; preds = %21
  %30 = load ptr, ptr %11, align 8, !tbaa !13
  %31 = load i8, ptr %30, align 1, !tbaa !19
  %32 = zext i8 %31 to i32
  %33 = ashr i32 %32, 4
  %34 = and i32 %33, 15
  %35 = icmp ne i32 %34, 0
  br i1 %35, label %36, label %55

36:                                               ; preds = %29
  br label %37

37:                                               ; preds = %36
  br label %38

38:                                               ; preds = %37
  br label %39

39:                                               ; preds = %38
  %40 = load i64, ptr @H5E_LINK_g, align 8, !tbaa !11
  %41 = load i64, ptr @H5E_CANTDECODE_g, align 8, !tbaa !11
  %42 = call i32 (ptr, ptr, i32, i64, i64, ptr, ...) @H5E_printf_stack(ptr noundef @.str, ptr noundef @__func__.H5L__extern_query, i32 noundef 284, i64 noundef %40, i64 noundef %41, ptr noundef @.str.4)
  br label %43

43:                                               ; preds = %39
  br label %44

44:                                               ; preds = %43
  store i8 1, ptr %13, align 1, !tbaa !7
  %45 = load i8, ptr %13, align 1, !tbaa !7, !range !9, !noundef !10
  %46 = trunc i8 %45 to i1
  %47 = zext i1 %46 to i8
  store i8 %47, ptr %13, align 1, !tbaa !7
  br label %48

48:                                               ; preds = %44
  br label %49

49:                                               ; preds = %48
  br label %50

50:                                               ; preds = %49
  store i64 -1, ptr %12, align 8, !tbaa !11
  br label %96

51:                                               ; No predecessors!
  br label %52

52:                                               ; preds = %51
  br label %53

53:                                               ; preds = %52
  br label %54

54:                                               ; preds = %53
  br label %55

55:                                               ; preds = %54, %29
  %56 = load ptr, ptr %11, align 8, !tbaa !13
  %57 = load i8, ptr %56, align 1, !tbaa !19
  %58 = zext i8 %57 to i32
  %59 = and i32 %58, 15
  %60 = and i32 %59, -1
  %61 = icmp ne i32 %60, 0
  br i1 %61, label %62, label %81

62:                                               ; preds = %55
  br label %63

63:                                               ; preds = %62
  br label %64

64:                                               ; preds = %63
  br label %65

65:                                               ; preds = %64
  %66 = load i64, ptr @H5E_LINK_g, align 8, !tbaa !11
  %67 = load i64, ptr @H5E_CANTDECODE_g, align 8, !tbaa !11
  %68 = call i32 (ptr, ptr, i32, i64, i64, ptr, ...) @H5E_printf_stack(ptr noundef @.str, ptr noundef @__func__.H5L__extern_query, i32 noundef 286, i64 noundef %66, i64 noundef %67, ptr noundef @.str.5)
  br label %69

69:                                               ; preds = %65
  br label %70

70:                                               ; preds = %69
  store i8 1, ptr %13, align 1, !tbaa !7
  %71 = load i8, ptr %13, align 1, !tbaa !7, !range !9, !noundef !10
  %72 = trunc i8 %71 to i1
  %73 = zext i1 %72 to i8
  store i8 %73, ptr %13, align 1, !tbaa !7
  br label %74

74:                                               ; preds = %70
  br label %75

75:                                               ; preds = %74
  br label %76

76:                                               ; preds = %75
  store i64 -1, ptr %12, align 8, !tbaa !11
  br label %96

77:                                               ; No predecessors!
  br label %78

78:                                               ; preds = %77
  br label %79

79:                                               ; preds = %78
  br label %80

80:                                               ; preds = %79
  br label %81

81:                                               ; preds = %80, %55
  %82 = load ptr, ptr %9, align 8, !tbaa !16
  %83 = icmp ne ptr %82, null
  br i1 %83, label %84, label %94

84:                                               ; preds = %81
  %85 = load i64, ptr %8, align 8, !tbaa !11
  %86 = load i64, ptr %10, align 8, !tbaa !11
  %87 = icmp ult i64 %85, %86
  br i1 %87, label %88, label %90

88:                                               ; preds = %84
  %89 = load i64, ptr %8, align 8, !tbaa !11
  store i64 %89, ptr %10, align 8, !tbaa !11
  br label %90

90:                                               ; preds = %88, %84
  %91 = load ptr, ptr %9, align 8, !tbaa !16
  %92 = load ptr, ptr %11, align 8, !tbaa !13
  %93 = load i64, ptr %10, align 8, !tbaa !11
  call void @llvm.memcpy.p0.p0.i64(ptr align 1 %91, ptr align 1 %92, i64 %93, i1 false)
  br label %94

94:                                               ; preds = %90, %81
  %95 = load i64, ptr %8, align 8, !tbaa !11
  store i64 %95, ptr %12, align 8, !tbaa !11
  br label %96

96:                                               ; preds = %94, %76, %50
  br label %97

97:                                               ; preds = %96, %21
  %98 = load i64, ptr %12, align 8, !tbaa !11
  call void @llvm.lifetime.end.p0(i64 1, ptr %13) #7
  call void @llvm.lifetime.end.p0(i64 8, ptr %12) #7
  call void @llvm.lifetime.end.p0(i64 8, ptr %11) #7
  ret i64 %98
}