; Function Attrs: nounwind uwtable
define internal noundef i64 @H5L__extern_query(ptr readnone captures(none) %0, ptr noundef readonly captures(none) %1, i64 noundef %2, ptr noundef writeonly captures(address_is_null) %3, i64 noundef %4) #0 {
  %6 = load i8, ptr @H5L_init_g, align 1, !tbaa !3, !range !7, !noundef !8
  %7 = trunc nuw i8 %6 to i1
  %8 = load i8, ptr @H5_libterm_g, align 1, !range !7
  %9 = trunc nuw i8 %8 to i1
  %10 = xor i1 %9, true
  %11 = select i1 %7, i1 true, i1 %10
  br i1 %11, label %12, label %25, !prof !9

12:                                               ; preds = %5
  %13 = load i8, ptr %1, align 1, !tbaa !19
  %.not = icmp ult i8 %13, 16
  br i1 %.not, label %18, label %14

14:                                               ; preds = %12
  %15 = load i64, ptr @H5E_LINK_g, align 8, !tbaa !10
  %16 = load i64, ptr @H5E_CANTDECODE_g, align 8, !tbaa !10
  %17 = tail call i32 (ptr, ptr, i32, i64, i64, ptr, ...) @H5E_printf_stack(ptr noundef nonnull @.str, ptr noundef nonnull @__func__.H5L__extern_query, i32 noundef 284, i64 noundef %15, i64 noundef %16, ptr noundef nonnull @.str.4) #7
  br label %25

18:                                               ; preds = %12
  %.not17 = icmp eq i8 %13, 0
  br i1 %.not17, label %23, label %19

19:                                               ; preds = %18
  %20 = load i64, ptr @H5E_LINK_g, align 8, !tbaa !10
  %21 = load i64, ptr @H5E_CANTDECODE_g, align 8, !tbaa !10
  %22 = tail call i32 (ptr, ptr, i32, i64, i64, ptr, ...) @H5E_printf_stack(ptr noundef nonnull @.str, ptr noundef nonnull @__func__.H5L__extern_query, i32 noundef 286, i64 noundef %20, i64 noundef %21, ptr noundef nonnull @.str.5) #7
  br label %25

23:                                               ; preds = %18
  %.not18 = icmp eq ptr %3, null
  br i1 %.not18, label %25, label %24

24:                                               ; preds = %23
  %spec.select = tail call i64 @llvm.umin.i64(i64 %2, i64 %4)
  tail call void @llvm.memcpy.p0.p0.i64(ptr nonnull align 1 %3, ptr nonnull align 1 %1, i64 %spec.select, i1 false)
  br label %25

25:                                               ; preds = %23, %24, %14, %19, %5
  %.0 = phi i64 [ -1, %14 ], [ -1, %19 ], [ 0, %5 ], [ %2, %24 ], [ %2, %23 ]
  ret i64 %.0
}